target datalayout = "e-m:e-p270:32:32-p271:32:32-p272:64:64-i64:64-i128:128-f80:128-n8:16:32:64-S128"
target triple = "x86_64-pc-linux-gnu"

%struct.LutContext = type { ptr, [4 x [65536 x i16]], [4 x ptr], [4 x ptr], i32, i32, [7 x double], i32, i32, i32, i32, i32 }

; Function Attrs: alwaysinline nounwind willreturn memory(none) uwtable
define internal i32 @av_clip_c(i32 noundef %0, i32 noundef %1, i32 noundef %2) #6 {
  %4 = alloca i32, align 4
  %5 = alloca i32, align 4
  %6 = alloca i32, align 4
  %7 = alloca i32, align 4
  store i32 %0, ptr %5, align 4, !tbaa !24
  store i32 %1, ptr %6, align 4, !tbaa !24
  store i32 %2, ptr %7, align 4, !tbaa !24
  %8 = load i32, ptr %5, align 4, !tbaa !24
  %9 = load i32, ptr %6, align 4, !tbaa !24
  %10 = icmp slt i32 %8, %9
  br i1 %10, label %11, label %13

11:                                               ; preds = %3
  %12 = load i32, ptr %6, align 4, !tbaa !24
  store i32 %12, ptr %4, align 4
  br label %21

13:                                               ; preds = %3
  %14 = load i32, ptr %5, align 4, !tbaa !24
  %15 = load i32, ptr %7, align 4, !tbaa !24
  %16 = icmp sgt i32 %14, %15
  br i1 %16, label %17, label %19

17:                                               ; preds = %13
  %18 = load i32, ptr %7, align 4, !tbaa !24
  store i32 %18, ptr %4, align 4
  br label %21

19:                                               ; preds = %13
  %20 = load i32, ptr %5, align 4, !tbaa !24
  store i32 %20, ptr %4, align 4
  br label %21

21:                                               ; preds = %19, %17, %11
  %22 = load i32, ptr %4, align 4
  ret i32 %22
}

; Function Attrs: nounwind uwtable
define internal double @clip(ptr noundef %0, double noundef %1) #1 {
  %3 = alloca ptr, align 8
  %4 = alloca double, align 8
  %5 = alloca ptr, align 8
  %6 = alloca double, align 8
  %7 = alloca double, align 8
  store ptr %0, ptr %3, align 8, !tbaa !34
  store double %1, ptr %4, align 8, !tbaa !73
  call void @llvm.lifetime.start.p0(i64 8, ptr %5) #8
  %8 = load ptr, ptr %3, align 8, !tbaa !34
  store ptr %8, ptr %5, align 8, !tbaa !22
  call void @llvm.lifetime.start.p0(i64 8, ptr %6) #8
  %9 = load ptr, ptr %5, align 8, !tbaa !22
  %10 = getelementptr inbounds nuw %struct.LutContext, ptr %9, i32 0, i32 6
  %11 = getelementptr inbounds [7 x double], ptr %10, i64 0, i64 4
  %12 = load double, ptr %11, align 8, !tbaa !73
  store double %12, ptr %6, align 8, !tbaa !73
  call void @llvm.lifetime.start.p0(i64 8, ptr %7) #8
  %13 = load ptr, ptr %5, align 8, !tbaa !22
  %14 = getelementptr inbounds nuw %struct.LutContext, ptr %13, i32 0, i32 6
  %15 = getelementptr inbounds [7 x double], ptr %14, i64 0, i64 3
  %16 = load double, ptr %15, align 8, !tbaa !73
  store double %16, ptr %7, align 8, !tbaa !73
  %17 = load double, ptr %4, align 8, !tbaa !73
  %18 = fptosi double %17 to i32
  %19 = load double, ptr %6, align 8, !tbaa !73
  %20 = fptosi double %19 to i32
  %21 = load double, ptr %7, align 8, !tbaa !73
  %22 = fptosi double %21 to i32
  %23 = call i32 @av_clip_c(i32 noundef %18, i32 noundef %20, i32 noundef %22) #10
  %24 = sitofp i32 %23 to double
  call void @llvm.lifetime.end.p0(i64 8, ptr %7) #8
  call void @llvm.lifetime.end.p0(i64 8, ptr %6) #8
  call void @llvm.lifetime.end.p0(i64 8, ptr %5) #8
  ret double %24
}