; Function Attrs: mustprogress nofree norecurse nosync nounwind willreturn memory(argmem: read) uwtable
define internal double @clip(ptr noundef readonly captures(none) %0, double noundef %1) #7 {
  %3 = getelementptr inbounds nuw i8, ptr %0, i64 524400
  %4 = load double, ptr %3, align 8, !tbaa !63
  %5 = getelementptr inbounds nuw i8, ptr %0, i64 524392
  %6 = load double, ptr %5, align 8, !tbaa !63
  %7 = fptosi double %1 to i32
  %8 = fptosi double %4 to i32
  %9 = fptosi double %6 to i32
  %10 = icmp slt i32 %7, %8
  %..i = tail call i32 @llvm.smin.i32(i32 %7, i32 %9)
  %.0.i = select i1 %10, i32 %8, i32 %..i
  %11 = sitofp i32 %.0.i to double
  ret double %11
}